target datalayout = "e-m:e-p270:32:32-p271:32:32-p272:64:64-i64:64-i128:128-f80:128-n8:16:32:64-S128"
target triple = "x86_64-pc-linux-gnu"

%"class.pxrInternal_v0_24__pxrReserved__::TfCallContext" = type <{ ptr, ptr, i64, ptr, i8, [7 x i8] }>

@.str = private unnamed_addr constant [119 x i8] c"generated/home/dtcxzyw/WorkSpace/Projects/compilers/llvm-opt-benchmark/bench/openusd/OpenUSD/pxr/imaging/hio/types.cpp\00", align 1
@.str.4 = private unnamed_addr constant [15 x i8] c"Missing Format\00", align 1
@.str.5 = private unnamed_addr constant [19 x i8] c"Unsupported format\00", align 1
@__func__._ZN32pxrInternal_v0_24__pxrReserved__22HioGetDataSizeOfFormatENS_9HioFormatEPmS1_ = private unnamed_addr constant [23 x i8] c"HioGetDataSizeOfFormat\00", align 1
@__PRETTY_FUNCTION__._ZN32pxrInternal_v0_24__pxrReserved__22HioGetDataSizeOfFormatENS_9HioFormatEPmS1_ = private unnamed_addr constant [105 x i8] c"size_t pxrInternal_v0_24__pxrReserved__::HioGetDataSizeOfFormat(HioFormat, size_t *const, size_t *const)\00", align 1

; Function Attrs: mustprogress nounwind uwtable
define linkonce_odr void @_ZN32pxrInternal_v0_24__pxrReserved__13TfCallContextC2EPKcS2_mS2_(ptr noundef nonnull align 8 dereferenceable(33) %0, ptr noundef %1, ptr noundef %2, i64 noundef %3, ptr noundef %4) unnamed_addr #2 comdat align 2 {
  %6 = alloca ptr, align 8
  %7 = alloca ptr, align 8
  %8 = alloca ptr, align 8
  %9 = alloca i64, align 8
  %10 = alloca ptr, align 8
  store ptr %0, ptr %6, align 8
  store ptr %1, ptr %7, align 8
  store ptr %2, ptr %8, align 8
  store i64 %3, ptr %9, align 8
  store ptr %4, ptr %10, align 8
  %11 = load ptr, ptr %6, align 8
  %12 = getelementptr inbounds nuw %"class.pxrInternal_v0_24__pxrReserved__::TfCallContext", ptr %11, i32 0, i32 0
  %13 = load ptr, ptr %7, align 8
  store ptr %13, ptr %12, align 8
  %14 = getelementptr inbounds nuw %"class.pxrInternal_v0_24__pxrReserved__::TfCallContext", ptr %11, i32 0, i32 1
  %15 = load ptr, ptr %8, align 8
  store ptr %15, ptr %14, align 8
  %16 = getelementptr inbounds nuw %"class.pxrInternal_v0_24__pxrReserved__::TfCallContext", ptr %11, i32 0, i32 2
  %17 = load i64, ptr %9, align 8
  store i64 %17, ptr %16, align 8
  %18 = getelementptr inbounds nuw %"class.pxrInternal_v0_24__pxrReserved__::TfCallContext", ptr %11, i32 0, i32 3
  %19 = load ptr, ptr %10, align 8
  store ptr %19, ptr %18, align 8
  %20 = getelementptr inbounds nuw %"class.pxrInternal_v0_24__pxrReserved__::TfCallContext", ptr %11, i32 0, i32 4
  store i8 0, ptr %20, align 8
  ret void
}

; Function Attrs: mustprogress uwtable
define noundef i64 @_ZN32pxrInternal_v0_24__pxrReserved__22HioGetDataSizeOfFormatENS_9HioFormatEPmS1_(i32 noundef %0, ptr noundef %1, ptr noundef %2) #0 {
  %4 = alloca i64, align 8
  %5 = alloca i32, align 4
  %6 = alloca ptr, align 8
  %7 = alloca ptr, align 8
  %8 = alloca %"class.pxrInternal_v0_24__pxrReserved__::TfCallContext", align 8
  %9 = alloca %"class.pxrInternal_v0_24__pxrReserved__::TfCallContext", align 8
  store i32 %0, ptr %5, align 4
  store ptr %1, ptr %6, align 8
  store ptr %2, ptr %7, align 8
  %10 = load ptr, ptr %6, align 8
  %11 = icmp ne ptr %10, null
  br i1 %11, label %12, label %14

12:                                               ; preds = %3
  %13 = load ptr, ptr %6, align 8
  store i64 1, ptr %13, align 8
  br label %14

14:                                               ; preds = %12, %3
  %15 = load ptr, ptr %7, align 8
  %16 = icmp ne ptr %15, null
  br i1 %16, label %17, label %19

17:                                               ; preds = %14
  %18 = load ptr, ptr %7, align 8
  store i64 1, ptr %18, align 8
  br label %19

19:                                               ; preds = %17, %14
  %20 = load i32, ptr %5, align 4
  switch i32 %20, label %49 [
    i32 0, label %21
    i32 4, label %21
    i32 36, label %21
    i32 1, label %22
    i32 5, label %22
    i32 37, label %22
    i32 2, label %23
    i32 6, label %23
    i32 38, label %23
    i32 3, label %24
    i32 7, label %24
    i32 39, label %24
    i32 8, label %25
    i32 20, label %25
    i32 24, label %25
    i32 9, label %26
    i32 21, label %26
    i32 25, label %26
    i32 10, label %27
    i32 22, label %27
    i32 26, label %27
    i32 11, label %28
    i32 23, label %28
    i32 27, label %28
    i32 12, label %29
    i32 28, label %29
    i32 32, label %29
    i32 13, label %30
    i32 29, label %30
    i32 33, label %30
    i32 14, label %31
    i32 30, label %31
    i32 34, label %31
    i32 15, label %32
    i32 31, label %32
    i32 35, label %32
    i32 16, label %33
    i32 17, label %34
    i32 18, label %35
    i32 19, label %36
    i32 40, label %37
    i32 41, label %37
    i32 42, label %37
    i32 43, label %37
    i32 44, label %37
    i32 45, label %37
    i32 -1, label %48
    i32 46, label %48
  ]

21:                                               ; preds = %19, %19, %19
  store i64 1, ptr %4, align 8
  br label %50

22:                                               ; preds = %19, %19, %19
  store i64 2, ptr %4, align 8
  br label %50

23:                                               ; preds = %19, %19, %19
  store i64 3, ptr %4, align 8
  br label %50

24:                                               ; preds = %19, %19, %19
  store i64 4, ptr %4, align 8
  br label %50

25:                                               ; preds = %19, %19, %19
  store i64 2, ptr %4, align 8
  br label %50

26:                                               ; preds = %19, %19, %19
  store i64 4, ptr %4, align 8
  br label %50

27:                                               ; preds = %19, %19, %19
  store i64 6, ptr %4, align 8
  br label %50

28:                                               ; preds = %19, %19, %19
  store i64 8, ptr %4, align 8
  br label %50

29:                                               ; preds = %19, %19, %19
  store i64 4, ptr %4, align 8
  br label %50

30:                                               ; preds = %19, %19, %19
  store i64 8, ptr %4, align 8
  br label %50

31:                                               ; preds = %19, %19, %19
  store i64 12, ptr %4, align 8
  br label %50

32:                                               ; preds = %19, %19, %19
  store i64 16, ptr %4, align 8
  br label %50

33:                                               ; preds = %19
  store i64 8, ptr %4, align 8
  br label %50

34:                                               ; preds = %19
  store i64 16, ptr %4, align 8
  br label %50

35:                                               ; preds = %19
  store i64 24, ptr %4, align 8
  br label %50

36:                                               ; preds = %19
  store i64 32, ptr %4, align 8
  br label %50

37:                                               ; preds = %19, %19, %19, %19, %19, %19
  %38 = load ptr, ptr %6, align 8
  %39 = icmp ne ptr %38, null
  br i1 %39, label %40, label %42

40:                                               ; preds = %37
  %41 = load ptr, ptr %6, align 8
  store i64 4, ptr %41, align 8
  br label %42

42:                                               ; preds = %40, %37
  %43 = load ptr, ptr %7, align 8
  %44 = icmp ne ptr %43, null
  br i1 %44, label %45, label %47

45:                                               ; preds = %42
  %46 = load ptr, ptr %7, align 8
  store i64 4, ptr %46, align 8
  br label %47

47:                                               ; preds = %45, %42
  store i64 16, ptr %4, align 8
  br label %50

48:                                               ; preds = %19, %19
  call void @_ZN32pxrInternal_v0_24__pxrReserved__13TfCallContextC2EPKcS2_mS2_(ptr noundef nonnull align 8 dereferenceable(33) %8, ptr noundef @.str, ptr noundef @__func__._ZN32pxrInternal_v0_24__pxrReserved__22HioGetDataSizeOfFormatENS_9HioFormatEPmS1_, i64 noundef 344, ptr noundef @__PRETTY_FUNCTION__._ZN32pxrInternal_v0_24__pxrReserved__22HioGetDataSizeOfFormatENS_9HioFormatEPmS1_)
  call void (ptr, i32, ptr, ...) @_ZN32pxrInternal_v0_24__pxrReserved__18Tf_PostErrorHelperERKNS_13TfCallContextENS_16TfDiagnosticTypeEPKcz(ptr noundef nonnull align 8 dereferenceable(33) %8, i32 noundef 1, ptr noundef @.str.5)
  store i64 0, ptr %4, align 8
  br label %50

49:                                               ; preds = %19
  call void @_ZN32pxrInternal_v0_24__pxrReserved__13TfCallContextC2EPKcS2_mS2_(ptr noundef nonnull align 8 dereferenceable(33) %9, ptr noundef @.str, ptr noundef @__func__._ZN32pxrInternal_v0_24__pxrReserved__22HioGetDataSizeOfFormatENS_9HioFormatEPmS1_, i64 noundef 347, ptr noundef @__PRETTY_FUNCTION__._ZN32pxrInternal_v0_24__pxrReserved__22HioGetDataSizeOfFormatENS_9HioFormatEPmS1_)
  call void (ptr, i32, ptr, ...) @_ZN32pxrInternal_v0_24__pxrReserved__18Tf_PostErrorHelperERKNS_13TfCallContextENS_16TfDiagnosticTypeEPKcz(ptr noundef nonnull align 8 dereferenceable(33) %9, i32 noundef 1, ptr noundef @.str.4)
  store i64 0, ptr %4, align 8
  br label %50

50:                                               ; preds = %49, %48, %47, %36, %35, %34, %33, %32, %31, %30, %29, %28, %27, %26, %25, %24, %23, %22, %21
  %51 = load i64, ptr %4, align 8
  ret i64 %51
}